; Function Attrs: mustprogress uwtable
define void @_ZN6icu_7510UnicodeSet10setToBogusEv(ptr nocapture noundef nonnull align 8 dereferenceable(200) %this) local_unnamed_addr #1 align 2 {
entry:
  %bmpSet.i.i = getelementptr inbounds i8, ptr %this, i64 40
  %0 = load ptr, ptr %bmpSet.i.i, align 8
  %cmp.not.i.i = icmp eq ptr %0, null
  %stringSpan.i.i = getelementptr inbounds i8, ptr %this, i64 88
  %1 = load ptr, ptr %stringSpan.i.i, align 8
  %cmp2.i.i = icmp eq ptr %1, null
  %narrow.i.not.i = select i1 %cmp.not.i.i, i1 %cmp2.i.i, i1 false
  br i1 %narrow.i.not.i, label %if.end.i, label %_ZN6icu_7510UnicodeSet5clearEv.exit

if.end.i:                                         ; preds = %entry
  %list.i = getelementptr inbounds i8, ptr %this, i64 16
  %2 = load ptr, ptr %list.i, align 8
  store i32 1114112, ptr %2, align 4
  %len.i = getelementptr inbounds i8, ptr %this, i64 28
  store i32 1, ptr %len.i, align 4
  %pat.i.i = getelementptr inbounds i8, ptr %this, i64 64
  %3 = load ptr, ptr %pat.i.i, align 8
  %tobool.not.i.i = icmp eq ptr %3, null
  br i1 %tobool.not.i.i, label %_ZN6icu_7510UnicodeSet14releasePatternEv.exit.i, label %if.then.i.i

if.then.i.i:                                      ; preds = %if.end.i
  tail call void @uprv_free_75(ptr noundef nonnull %3)
  store ptr null, ptr %pat.i.i, align 8
  %patLen.i.i = getelementptr inbounds i8, ptr %this, i64 72
  store i32 0, ptr %patLen.i.i, align 8
  br label %_ZN6icu_7510UnicodeSet14releasePatternEv.exit.i

_ZN6icu_7510UnicodeSet14releasePatternEv.exit.i:  ; preds = %if.then.i.i, %if.end.i
  %strings.i = getelementptr inbounds i8, ptr %this, i64 80
  %4 = load ptr, ptr %strings.i, align 8
  %cmp.not.i = icmp eq ptr %4, null
  br i1 %cmp.not.i, label %_ZN6icu_7510UnicodeSet5clearEv.exit, label %if.then2.i

if.then2.i:                                       ; preds = %_ZN6icu_7510UnicodeSet14releasePatternEv.exit.i
  tail call void @_ZN6icu_757UVector17removeAllElementsEv(ptr noundef nonnull align 8 dereferenceable(40) %4)
  br label %_ZN6icu_7510UnicodeSet5clearEv.exit

_ZN6icu_7510UnicodeSet5clearEv.exit:              ; preds = %_ZN6icu_7510UnicodeSet14releasePatternEv.exit.i, %if.then2.i, %entry
  %fFlags = getelementptr inbounds i8, ptr %this, i64 32
  store i8 1, ptr %fFlags, align 8
  ret void
}